target datalayout = "e-m:e-p270:32:32-p271:32:32-p272:64:64-i64:64-i128:128-f80:128-n8:16:32:64-S128"
target triple = "x86_64-pc-linux-gnu"

%struct.stat = type { i64, i64, i64, i32, i32, i32, i32, i64, i64, i64, i64, %struct.timespec, %struct.timespec, %struct.timespec, [3 x i64] }
%struct.timespec = type { i64, i64 }

@.str.1 = private unnamed_addr constant [34 x i8] c"../openssl/crypto/conf/conf_def.c\00", align 1
@.str.15 = private unnamed_addr constant [2 x i8] c"r\00", align 1
@__func__.process_include = private unnamed_addr constant [16 x i8] c"process_include\00", align 1
@.str.20 = private unnamed_addr constant [17 x i8] c"calling stat(%s)\00", align 1
@.str.21 = private unnamed_addr constant [3 x i8] c"%s\00", align 1

; Function Attrs: nounwind uwtable
define internal ptr @process_include(ptr noundef %0, ptr noundef %1, ptr noundef %2) #0 {
  %4 = alloca ptr, align 8
  %5 = alloca ptr, align 8
  %6 = alloca ptr, align 8
  %7 = alloca ptr, align 8
  %8 = alloca %struct.stat, align 8
  %9 = alloca ptr, align 8
  %10 = alloca i32, align 4
  store ptr %0, ptr %5, align 8, !tbaa !29
  store ptr %1, ptr %6, align 8, !tbaa !46
  store ptr %2, ptr %7, align 8, !tbaa !55
  call void @llvm.lifetime.start.p0(i64 144, ptr %8) #9
  call void @llvm.lifetime.start.p0(i64 8, ptr %9) #9
  %11 = load ptr, ptr %5, align 8, !tbaa !29
  %12 = call i32 @stat(ptr noundef %11, ptr noundef %8) #9
  %13 = icmp slt i32 %12, 0
  br i1 %13, label %14, label %18

14:                                               ; preds = %3
  call void @ERR_new()
  call void @ERR_set_debug(ptr noundef @.str.1, i32 noundef 813, ptr noundef @__func__.process_include)
  %15 = call ptr @__errno_location() #11
  %16 = load i32, ptr %15, align 4, !tbaa !23
  %17 = load ptr, ptr %5, align 8, !tbaa !29
  call void (i32, i32, ptr, ...) @ERR_set_error(i32 noundef 2, i32 noundef %16, ptr noundef @.str.20, ptr noundef %17)
  store ptr null, ptr %4, align 8
  store i32 1, ptr %10, align 4
  br label %43

18:                                               ; preds = %3
  %19 = getelementptr inbounds nuw %struct.stat, ptr %8, i32 0, i32 3
  %20 = load i32, ptr %19, align 8, !tbaa !67
  %21 = and i32 %20, 61440
  %22 = icmp eq i32 %21, 16384
  br i1 %22, label %23, label %39

23:                                               ; preds = %18
  %24 = load ptr, ptr %6, align 8, !tbaa !46
  %25 = load ptr, ptr %24, align 8, !tbaa !33
  %26 = icmp ne ptr %25, null
  br i1 %26, label %27, label %29

27:                                               ; preds = %23
  call void @ERR_new()
  call void @ERR_set_debug(ptr noundef @.str.1, i32 noundef 820, ptr noundef @__func__.process_include)
  %28 = load ptr, ptr %5, align 8, !tbaa !29
  call void (i32, i32, ptr, ...) @ERR_set_error(i32 noundef 14, i32 noundef 111, ptr noundef @.str.21, ptr noundef %28)
  store ptr null, ptr %4, align 8
  store i32 1, ptr %10, align 4
  br label %43

29:                                               ; preds = %23
  %30 = load ptr, ptr %5, align 8, !tbaa !29
  %31 = load ptr, ptr %6, align 8, !tbaa !46
  %32 = call ptr @get_next_file(ptr noundef %30, ptr noundef %31)
  store ptr %32, ptr %9, align 8, !tbaa !19
  %33 = icmp ne ptr %32, null
  br i1 %33, label %34, label %37

34:                                               ; preds = %29
  %35 = load ptr, ptr %5, align 8, !tbaa !29
  %36 = load ptr, ptr %7, align 8, !tbaa !55
  store ptr %35, ptr %36, align 8, !tbaa !29
  br label %37

37:                                               ; preds = %34, %29
  %38 = load ptr, ptr %9, align 8, !tbaa !19
  store ptr %38, ptr %4, align 8
  store i32 1, ptr %10, align 4
  br label %43

39:                                               ; preds = %18
  %40 = load ptr, ptr %5, align 8, !tbaa !29
  %41 = call ptr @BIO_new_file(ptr noundef %40, ptr noundef @.str.15)
  store ptr %41, ptr %9, align 8, !tbaa !19
  %42 = load ptr, ptr %9, align 8, !tbaa !19
  store ptr %42, ptr %4, align 8
  store i32 1, ptr %10, align 4
  br label %43

43:                                               ; preds = %39, %37, %27, %14
  call void @llvm.lifetime.end.p0(i64 8, ptr %9) #9
  call void @llvm.lifetime.end.p0(i64 144, ptr %8) #9
  %44 = load ptr, ptr %4, align 8
  ret ptr %44
}