; Function Attrs: nounwind uwtable
define internal fastcc ptr @process_include(ptr noundef %0, ptr noundef nonnull %1, ptr noundef nonnull writeonly captures(none) %2) unnamed_addr #1 {
  %4 = alloca %struct.stat, align 8
  call void @llvm.lifetime.start.p0(i64 144, ptr nonnull %4) #15
  %5 = call i32 @stat(ptr noundef %0, ptr noundef nonnull %4) #15
  %6 = icmp slt i32 %5, 0
  br i1 %6, label %7, label %10

7:                                                ; preds = %3
  tail call void @ERR_new() #15
  tail call void @ERR_set_debug(ptr noundef nonnull @.str.1, i32 noundef 813, ptr noundef nonnull @__func__.process_include) #15
  %8 = tail call ptr @__errno_location() #17
  %9 = load i32, ptr %8, align 4, !tbaa !47
  tail call void (i32, i32, ptr, ...) @ERR_set_error(i32 noundef 2, i32 noundef %9, ptr noundef nonnull @.str.20, ptr noundef %0) #15
  br label %23

10:                                               ; preds = %3
  %11 = getelementptr inbounds nuw i8, ptr %4, i64 24
  %12 = load i32, ptr %11, align 8, !tbaa !48
  %13 = and i32 %12, 61440
  %14 = icmp eq i32 %13, 16384
  br i1 %14, label %15, label %21

15:                                               ; preds = %10
  %16 = load ptr, ptr %1, align 8, !tbaa !18
  %.not = icmp eq ptr %16, null
  br i1 %.not, label %18, label %17

17:                                               ; preds = %15
  tail call void @ERR_new() #15
  tail call void @ERR_set_debug(ptr noundef nonnull @.str.1, i32 noundef 820, ptr noundef nonnull @__func__.process_include) #15
  tail call void (i32, i32, ptr, ...) @ERR_set_error(i32 noundef 14, i32 noundef 111, ptr noundef nonnull @.str.21, ptr noundef %0) #15
  br label %23

18:                                               ; preds = %15
  %19 = tail call fastcc ptr @get_next_file(ptr noundef %0, ptr noundef %1)
  %.not12 = icmp eq ptr %19, null
  br i1 %.not12, label %23, label %20

20:                                               ; preds = %18
  store ptr %0, ptr %2, align 8, !tbaa !16
  br label %23

21:                                               ; preds = %10
  %22 = tail call ptr @BIO_new_file(ptr noundef %0, ptr noundef nonnull @.str.15) #15
  br label %23

23:                                               ; preds = %18, %20, %21, %17, %7
  %.0 = phi ptr [ null, %7 ], [ null, %17 ], [ %22, %21 ], [ %19, %20 ], [ null, %18 ]
  call void @llvm.lifetime.end.p0(i64 144, ptr nonnull %4) #15
  ret ptr %.0
}